target datalayout = "e-m:e-p270:32:32-p271:32:32-p272:64:64-i64:64-i128:128-f80:128-n8:16:32:64-S128"
target triple = "x86_64-pc-linux-gnu"

@.str.37 = private unnamed_addr constant [1 x i8] zeroinitializer, align 1
@.str.76 = private unnamed_addr constant [8 x i8] c"__index\00", align 1

; Function Attrs: nounwind uwtable
define internal void @createmetatable(ptr noundef %0) #0 {
  %2 = alloca ptr, align 8
  store ptr %0, ptr %2, align 8, !tbaa !4
  %3 = load ptr, ptr %2, align 8, !tbaa !4
  call void @lua_createtable(ptr noundef %3, i32 noundef 0, i32 noundef 9)
  %4 = load ptr, ptr %2, align 8, !tbaa !4
  call void @luaL_setfuncs(ptr noundef %4, ptr noundef @stringmetamethods, i32 noundef 0)
  %5 = load ptr, ptr %2, align 8, !tbaa !4
  %6 = call ptr @lua_pushstring(ptr noundef %5, ptr noundef @.str.37)
  %7 = load ptr, ptr %2, align 8, !tbaa !4
  call void @lua_pushvalue(ptr noundef %7, i32 noundef -2)
  %8 = load ptr, ptr %2, align 8, !tbaa !4
  %9 = call i32 @lua_setmetatable(ptr noundef %8, i32 noundef -2)
  %10 = load ptr, ptr %2, align 8, !tbaa !4
  call void @lua_settop(ptr noundef %10, i32 noundef -2)
  %11 = load ptr, ptr %2, align 8, !tbaa !4
  call void @lua_pushvalue(ptr noundef %11, i32 noundef -2)
  %12 = load ptr, ptr %2, align 8, !tbaa !4
  call void @lua_setfield(ptr noundef %12, i32 noundef -2, ptr noundef @.str.76)
  %13 = load ptr, ptr %2, align 8, !tbaa !4
  call void @lua_settop(ptr noundef %13, i32 noundef -2)
  ret void
}

; Function Attrs: nounwind uwtable
define dso_local i32 @luaopen_string(ptr noundef %0) #0 {
  %2 = alloca ptr, align 8
  store ptr %0, ptr %2, align 8, !tbaa !4
  %3 = load ptr, ptr %2, align 8, !tbaa !4
  call void @luaL_checkversion_(ptr noundef %3, double noundef 5.050000e+02, i64 noundef 136)
  %4 = load ptr, ptr %2, align 8, !tbaa !4
  call void @lua_createtable(ptr noundef %4, i32 noundef 0, i32 noundef 17)
  %5 = load ptr, ptr %2, align 8, !tbaa !4
  call void @luaL_setfuncs(ptr noundef %5, ptr noundef @strlib, i32 noundef 0)
  %6 = load ptr, ptr %2, align 8, !tbaa !4
  call void @createmetatable(ptr noundef %6)
  ret i32 1
}