; Function Attrs: nounwind uwtable
define dso_local noundef i32 @luaopen_string(ptr noundef %0) local_unnamed_addr #0 {
  tail call void @luaL_checkversion_(ptr noundef %0, double noundef 5.050000e+02, i64 noundef 136) #12
  tail call void @lua_createtable(ptr noundef %0, i32 noundef 0, i32 noundef 17) #12
  tail call void @luaL_setfuncs(ptr noundef %0, ptr noundef nonnull @strlib, i32 noundef 0) #12
  tail call void @lua_createtable(ptr noundef %0, i32 noundef 0, i32 noundef 9) #12
  tail call void @luaL_setfuncs(ptr noundef %0, ptr noundef nonnull @stringmetamethods, i32 noundef 0) #12
  %2 = tail call ptr @lua_pushstring(ptr noundef %0, ptr noundef nonnull @.str.37) #12
  tail call void @lua_pushvalue(ptr noundef %0, i32 noundef -2) #12
  %3 = tail call i32 @lua_setmetatable(ptr noundef %0, i32 noundef -2) #12
  tail call void @lua_settop(ptr noundef %0, i32 noundef -2) #12
  tail call void @lua_pushvalue(ptr noundef %0, i32 noundef -2) #12
  tail call void @lua_setfield(ptr noundef %0, i32 noundef -2, ptr noundef nonnull @.str.76) #12
  tail call void @lua_settop(ptr noundef %0, i32 noundef -2) #12
  ret i32 1
}